target datalayout = "e-m:e-p270:32:32-p271:32:32-p272:64:64-i64:64-i128:128-f80:128-n8:16:32:64-S128"
target triple = "x86_64-pc-linux-gnu"

%struct.H5D_chk_idx_info_t = type { ptr, ptr, ptr, ptr }
%struct.H5O_storage_chunk_t = type { i32, i64, ptr, %union.anon.4 }
%union.anon.4 = type { %struct.H5O_storage_chunk_btree_t }
%struct.H5O_storage_chunk_btree_t = type { i64, ptr }
%struct.H5O_storage_chunk_earray_t = type { i64, ptr }
%struct.H5EA_stat_t = type { %struct.anon.6, %struct.anon.7 }
%struct.anon.6 = type { i64, i64, i64 }
%struct.anon.7 = type { i64, i64, i64, i64, i64, i64 }

@H5D_init_g = external global i8, align 1
@H5_libterm_g = external global i8, align 1
@.str.2 = private unnamed_addr constant [103 x i8] c"generated/home/dtcxzyw/WorkSpace/Projects/compilers/llvm-opt-benchmark/bench/hdf5/hdf5/src/H5Dearray.c\00", align 1
@H5E_DATASET_g = external global i64, align 8
@H5E_CANTOPENOBJ_g = external global i64, align 8
@H5E_CANTGET_g = external global i64, align 8
@H5E_CANTCLOSEOBJ_g = external global i64, align 8
@.str.25 = private unnamed_addr constant [28 x i8] c"can't open extensible array\00", align 1
@__func__.H5D__earray_idx_close = private unnamed_addr constant [22 x i8] c"H5D__earray_idx_close\00", align 1
@.str.26 = private unnamed_addr constant [33 x i8] c"unable to close extensible array\00", align 1
@.str.34 = private unnamed_addr constant [40 x i8] c"can't query extensible array statistics\00", align 1
@__func__.H5D__earray_idx_size = private unnamed_addr constant [21 x i8] c"H5D__earray_idx_size\00", align 1

; Function Attrs: nounwind uwtable
define internal i32 @H5D__earray_idx_close(ptr noundef %0) #0 {
  %2 = alloca ptr, align 8
  %3 = alloca i32, align 4
  %4 = alloca i8, align 1
  store ptr %0, ptr %2, align 8, !tbaa !3
  call void @llvm.lifetime.start.p0(i64 4, ptr %3) #8
  store i32 0, ptr %3, align 4, !tbaa !12
  call void @llvm.lifetime.start.p0(i64 1, ptr %4) #8
  store i8 0, ptr %4, align 1, !tbaa !14
  %5 = load i8, ptr @H5D_init_g, align 1, !tbaa !14, !range !16, !noundef !17
  %6 = trunc i8 %5 to i1
  br i1 %6, label %11, label %7

7:                                                ; preds = %1
  %8 = load i8, ptr @H5_libterm_g, align 1, !tbaa !14, !range !16, !noundef !17
  %9 = trunc i8 %8 to i1
  %10 = xor i1 %9, true
  br label %11

11:                                               ; preds = %7, %1
  %12 = phi i1 [ true, %1 ], [ %10, %7 ]
  %13 = xor i1 %12, true
  %14 = xor i1 %13, true
  %15 = zext i1 %14 to i32
  %16 = sext i32 %15 to i64
  %17 = call i64 @llvm.expect.i64(i64 %16, i64 1)
  %18 = icmp ne i64 %17, 0
  br i1 %18, label %19, label %54

19:                                               ; preds = %11
  %20 = load ptr, ptr %2, align 8, !tbaa !3
  %21 = getelementptr inbounds nuw %struct.H5D_chk_idx_info_t, ptr %20, i32 0, i32 3
  %22 = load ptr, ptr %21, align 8, !tbaa !27
  %23 = getelementptr inbounds nuw %struct.H5O_storage_chunk_t, ptr %22, i32 0, i32 3
  %24 = getelementptr inbounds nuw %struct.H5O_storage_chunk_earray_t, ptr %23, i32 0, i32 1
  %25 = load ptr, ptr %24, align 8, !tbaa !26
  %26 = call i32 @H5EA_close(ptr noundef %25)
  %27 = icmp slt i32 %26, 0
  br i1 %27, label %28, label %47

28:                                               ; preds = %19
  br label %29

29:                                               ; preds = %28
  br label %30

30:                                               ; preds = %29
  br label %31

31:                                               ; preds = %30
  %32 = load i64, ptr @H5E_DATASET_g, align 8, !tbaa !10
  %33 = load i64, ptr @H5E_CANTCLOSEOBJ_g, align 8, !tbaa !10
  %34 = call i32 (ptr, ptr, i32, i64, i64, ptr, ...) @H5E_printf_stack(ptr noundef @.str.2, ptr noundef @__func__.H5D__earray_idx_close, i32 noundef 941, i64 noundef %32, i64 noundef %33, ptr noundef @.str.26)
  br label %35

35:                                               ; preds = %31
  br label %36

36:                                               ; preds = %35
  store i8 1, ptr %4, align 1, !tbaa !14
  %37 = load i8, ptr %4, align 1, !tbaa !14, !range !16, !noundef !17
  %38 = trunc i8 %37 to i1
  %39 = zext i1 %38 to i8
  store i8 %39, ptr %4, align 1, !tbaa !14
  br label %40

40:                                               ; preds = %36
  br label %41

41:                                               ; preds = %40
  br label %42

42:                                               ; preds = %41
  store i32 -1, ptr %3, align 4, !tbaa !12
  br label %53

43:                                               ; No predecessors!
  br label %44

44:                                               ; preds = %43
  br label %45

45:                                               ; preds = %44
  br label %46

46:                                               ; preds = %45
  br label %47

47:                                               ; preds = %46, %19
  %48 = load ptr, ptr %2, align 8, !tbaa !3
  %49 = getelementptr inbounds nuw %struct.H5D_chk_idx_info_t, ptr %48, i32 0, i32 3
  %50 = load ptr, ptr %49, align 8, !tbaa !27
  %51 = getelementptr inbounds nuw %struct.H5O_storage_chunk_t, ptr %50, i32 0, i32 3
  %52 = getelementptr inbounds nuw %struct.H5O_storage_chunk_earray_t, ptr %51, i32 0, i32 1
  store ptr null, ptr %52, align 8, !tbaa !26
  br label %53

53:                                               ; preds = %47, %42
  br label %54

54:                                               ; preds = %53, %11
  %55 = load i32, ptr %3, align 4, !tbaa !12
  call void @llvm.lifetime.end.p0(i64 1, ptr %4) #8
  call void @llvm.lifetime.end.p0(i64 4, ptr %3) #8
  ret i32 %55
}

; Function Attrs: nounwind uwtable
define internal i32 @H5D__earray_idx_size(ptr noundef %0, ptr noundef %1) #0 {
  %3 = alloca ptr, align 8
  %4 = alloca ptr, align 8
  %5 = alloca ptr, align 8
  %6 = alloca %struct.H5EA_stat_t, align 8
  %7 = alloca i32, align 4
  %8 = alloca i8, align 1
  store ptr %0, ptr %3, align 8, !tbaa !3
  store ptr %1, ptr %4, align 8, !tbaa !98
  call void @llvm.lifetime.start.p0(i64 8, ptr %5) #8
  call void @llvm.lifetime.start.p0(i64 72, ptr %6) #8
  call void @llvm.lifetime.start.p0(i64 4, ptr %7) #8
  store i32 0, ptr %7, align 4, !tbaa !12
  call void @llvm.lifetime.start.p0(i64 1, ptr %8) #8
  store i8 0, ptr %8, align 1, !tbaa !14
  %9 = load i8, ptr @H5D_init_g, align 1, !tbaa !14, !range !16, !noundef !17
  %10 = trunc i8 %9 to i1
  br i1 %10, label %15, label %11

11:                                               ; preds = %2
  %12 = load i8, ptr @H5_libterm_g, align 1, !tbaa !14, !range !16, !noundef !17
  %13 = trunc i8 %12 to i1
  %14 = xor i1 %13, true
  br label %15

15:                                               ; preds = %11, %2
  %16 = phi i1 [ true, %2 ], [ %14, %11 ]
  %17 = xor i1 %16, true
  %18 = xor i1 %17, true
  %19 = zext i1 %18 to i32
  %20 = sext i32 %19 to i64
  %21 = call i64 @llvm.expect.i64(i64 %20, i64 1)
  %22 = icmp ne i64 %21, 0
  br i1 %22, label %23, label %122

23:                                               ; preds = %15
  %24 = load ptr, ptr %3, align 8, !tbaa !3
  %25 = call i32 @H5D__earray_idx_open(ptr noundef %24)
  %26 = icmp slt i32 %25, 0
  br i1 %26, label %27, label %46

27:                                               ; preds = %23
  br label %28

28:                                               ; preds = %27
  br label %29

29:                                               ; preds = %28
  br label %30

30:                                               ; preds = %29
  %31 = load i64, ptr @H5E_DATASET_g, align 8, !tbaa !10
  %32 = load i64, ptr @H5E_CANTOPENOBJ_g, align 8, !tbaa !10
  %33 = call i32 (ptr, ptr, i32, i64, i64, ptr, ...) @H5E_printf_stack(ptr noundef @.str.2, ptr noundef @__func__.H5D__earray_idx_size, i32 noundef 1685, i64 noundef %31, i64 noundef %32, ptr noundef @.str.25)
  br label %34

34:                                               ; preds = %30
  br label %35

35:                                               ; preds = %34
  store i8 1, ptr %8, align 1, !tbaa !14
  %36 = load i8, ptr %8, align 1, !tbaa !14, !range !16, !noundef !17
  %37 = trunc i8 %36 to i1
  %38 = zext i1 %37 to i8
  store i8 %38, ptr %8, align 1, !tbaa !14
  br label %39

39:                                               ; preds = %35
  br label %40

40:                                               ; preds = %39
  br label %41

41:                                               ; preds = %40
  store i32 -1, ptr %7, align 4, !tbaa !12
  br label %92

42:                                               ; No predecessors!
  br label %43

43:                                               ; preds = %42
  br label %44

44:                                               ; preds = %43
  br label %45

45:                                               ; preds = %44
  br label %46

46:                                               ; preds = %45, %23
  %47 = load ptr, ptr %3, align 8, !tbaa !3
  %48 = getelementptr inbounds nuw %struct.H5D_chk_idx_info_t, ptr %47, i32 0, i32 3
  %49 = load ptr, ptr %48, align 8, !tbaa !27
  %50 = getelementptr inbounds nuw %struct.H5O_storage_chunk_t, ptr %49, i32 0, i32 3
  %51 = getelementptr inbounds nuw %struct.H5O_storage_chunk_earray_t, ptr %50, i32 0, i32 1
  %52 = load ptr, ptr %51, align 8, !tbaa !26
  store ptr %52, ptr %5, align 8, !tbaa !58
  %53 = load ptr, ptr %5, align 8, !tbaa !58
  %54 = call i32 @H5EA_get_stats(ptr noundef %53, ptr noundef %6)
  %55 = icmp slt i32 %54, 0
  br i1 %55, label %56, label %75

56:                                               ; preds = %46
  br label %57

57:                                               ; preds = %56
  br label %58

58:                                               ; preds = %57
  br label %59

59:                                               ; preds = %58
  %60 = load i64, ptr @H5E_DATASET_g, align 8, !tbaa !10
  %61 = load i64, ptr @H5E_CANTGET_g, align 8, !tbaa !10
  %62 = call i32 (ptr, ptr, i32, i64, i64, ptr, ...) @H5E_printf_stack(ptr noundef @.str.2, ptr noundef @__func__.H5D__earray_idx_size, i32 noundef 1692, i64 noundef %60, i64 noundef %61, ptr noundef @.str.34)
  br label %63

63:                                               ; preds = %59
  br label %64

64:                                               ; preds = %63
  store i8 1, ptr %8, align 1, !tbaa !14
  %65 = load i8, ptr %8, align 1, !tbaa !14, !range !16, !noundef !17
  %66 = trunc i8 %65 to i1
  %67 = zext i1 %66 to i8
  store i8 %67, ptr %8, align 1, !tbaa !14
  br label %68

68:                                               ; preds = %64
  br label %69

69:                                               ; preds = %68
  br label %70

70:                                               ; preds = %69
  store i32 -1, ptr %7, align 4, !tbaa !12
  br label %92

71:                                               ; No predecessors!
  br label %72

72:                                               ; preds = %71
  br label %73

73:                                               ; preds = %72
  br label %74

74:                                               ; preds = %73
  br label %75

75:                                               ; preds = %74, %46
  %76 = getelementptr inbounds nuw %struct.H5EA_stat_t, ptr %6, i32 0, i32 0
  %77 = getelementptr inbounds nuw %struct.anon.6, ptr %76, i32 0, i32 0
  %78 = load i64, ptr %77, align 8, !tbaa !99
  %79 = getelementptr inbounds nuw %struct.H5EA_stat_t, ptr %6, i32 0, i32 0
  %80 = getelementptr inbounds nuw %struct.anon.6, ptr %79, i32 0, i32 2
  %81 = load i64, ptr %80, align 8, !tbaa !100
  %82 = add i64 %78, %81
  %83 = getelementptr inbounds nuw %struct.H5EA_stat_t, ptr %6, i32 0, i32 1
  %84 = getelementptr inbounds nuw %struct.anon.7, ptr %83, i32 0, i32 1
  %85 = load i64, ptr %84, align 8, !tbaa !101
  %86 = add i64 %82, %85
  %87 = getelementptr inbounds nuw %struct.H5EA_stat_t, ptr %6, i32 0, i32 1
  %88 = getelementptr inbounds nuw %struct.anon.7, ptr %87, i32 0, i32 3
  %89 = load i64, ptr %88, align 8, !tbaa !102
  %90 = add i64 %86, %89
  %91 = load ptr, ptr %4, align 8, !tbaa !98
  store i64 %90, ptr %91, align 8, !tbaa !10
  br label %92

92:                                               ; preds = %75, %70, %41
  %93 = load ptr, ptr %3, align 8, !tbaa !3
  %94 = getelementptr inbounds nuw %struct.H5D_chk_idx_info_t, ptr %93, i32 0, i32 3
  %95 = load ptr, ptr %94, align 8, !tbaa !27
  %96 = getelementptr inbounds nuw %struct.H5O_storage_chunk_t, ptr %95, i32 0, i32 3
  %97 = getelementptr inbounds nuw %struct.H5O_storage_chunk_earray_t, ptr %96, i32 0, i32 1
  %98 = load ptr, ptr %97, align 8, !tbaa !26
  %99 = icmp ne ptr %98, null
  br i1 %99, label %100, label %121

100:                                              ; preds = %92
  %101 = load ptr, ptr %3, align 8, !tbaa !3
  %102 = call i32 @H5D__earray_idx_close(ptr noundef %101)
  %103 = icmp slt i32 %102, 0
  br i1 %103, label %104, label %120

104:                                              ; preds = %100
  br label %105

105:                                              ; preds = %104
  br label %106

106:                                              ; preds = %105
  br label %107

107:                                              ; preds = %106
  %108 = load i64, ptr @H5E_DATASET_g, align 8, !tbaa !10
  %109 = load i64, ptr @H5E_CANTCLOSEOBJ_g, align 8, !tbaa !10
  %110 = call i32 (ptr, ptr, i32, i64, i64, ptr, ...) @H5E_printf_stack(ptr noundef @.str.2, ptr noundef @__func__.H5D__earray_idx_size, i32 noundef 1701, i64 noundef %108, i64 noundef %109, ptr noundef @.str.26)
  br label %111

111:                                              ; preds = %107
  br label %112

112:                                              ; preds = %111
  store i8 1, ptr %8, align 1, !tbaa !14
  %113 = load i8, ptr %8, align 1, !tbaa !14, !range !16, !noundef !17
  %114 = trunc i8 %113 to i1
  %115 = zext i1 %114 to i8
  store i8 %115, ptr %8, align 1, !tbaa !14
  br label %116

116:                                              ; preds = %112
  br label %117

117:                                              ; preds = %116
  store i32 -1, ptr %7, align 4, !tbaa !12
  br label %118

118:                                              ; preds = %117
  br label %119

119:                                              ; preds = %118
  br label %120

120:                                              ; preds = %119, %100
  br label %121

121:                                              ; preds = %120, %92
  br label %122

122:                                              ; preds = %121, %15
  %123 = load i32, ptr %7, align 4, !tbaa !12
  call void @llvm.lifetime.end.p0(i64 1, ptr %8) #8
  call void @llvm.lifetime.end.p0(i64 4, ptr %7) #8
  call void @llvm.lifetime.end.p0(i64 72, ptr %6) #8
  call void @llvm.lifetime.end.p0(i64 8, ptr %5) #8
  ret i32 %123
}