; Function Attrs: nounwind uwtable
define internal range(i32 -1, 1) i32 @H5D__earray_idx_size(ptr noundef readonly captures(none) %0, ptr noundef writeonly captures(none) %1) #0 {
  %3 = alloca %struct.H5EA_stat_t, align 8
  call void @llvm.lifetime.start.p0(i64 72, ptr nonnull %3) #11
  %4 = load i8, ptr @H5D_init_g, align 1, !tbaa !3, !range !7, !noundef !8
  %5 = trunc nuw i8 %4 to i1
  %6 = load i8, ptr @H5_libterm_g, align 1, !range !7
  %7 = trunc nuw i8 %6 to i1
  %8 = xor i1 %7, true
  %9 = select i1 %5, i1 true, i1 %8
  br i1 %9, label %10, label %H5D__earray_idx_close.exit.thread, !prof !9

10:                                               ; preds = %2
  %11 = tail call i32 @H5D__earray_idx_open(ptr noundef %0)
  %12 = icmp slt i32 %11, 0
  br i1 %12, label %13, label %17

13:                                               ; preds = %10
  %14 = load i64, ptr @H5E_DATASET_g, align 8, !tbaa !10
  %15 = load i64, ptr @H5E_CANTOPENOBJ_g, align 8, !tbaa !10
  %16 = tail call i32 (ptr, ptr, i32, i64, i64, ptr, ...) @H5E_printf_stack(ptr noundef nonnull @.str.2, ptr noundef nonnull @__func__.H5D__earray_idx_size, i32 noundef 1685, i64 noundef %14, i64 noundef %15, ptr noundef nonnull @.str.25) #11
  br label %39

17:                                               ; preds = %10
  %18 = getelementptr inbounds nuw i8, ptr %0, i64 24
  %19 = load ptr, ptr %18, align 8, !tbaa !22
  %20 = getelementptr inbounds nuw i8, ptr %19, i64 32
  %21 = load ptr, ptr %20, align 8, !tbaa !21
  %22 = call i32 @H5EA_get_stats(ptr noundef %21, ptr noundef nonnull %3) #11
  %23 = icmp slt i32 %22, 0
  br i1 %23, label %24, label %28

24:                                               ; preds = %17
  %25 = load i64, ptr @H5E_DATASET_g, align 8, !tbaa !10
  %26 = load i64, ptr @H5E_CANTGET_g, align 8, !tbaa !10
  %27 = call i32 (ptr, ptr, i32, i64, i64, ptr, ...) @H5E_printf_stack(ptr noundef nonnull @.str.2, ptr noundef nonnull @__func__.H5D__earray_idx_size, i32 noundef 1692, i64 noundef %25, i64 noundef %26, ptr noundef nonnull @.str.34) #11
  br label %39

28:                                               ; preds = %17
  %29 = load i64, ptr %3, align 8, !tbaa !81
  %30 = getelementptr inbounds nuw i8, ptr %3, i64 16
  %31 = load i64, ptr %30, align 8, !tbaa !82
  %32 = add i64 %31, %29
  %33 = getelementptr inbounds nuw i8, ptr %3, i64 32
  %34 = load i64, ptr %33, align 8, !tbaa !83
  %35 = add i64 %32, %34
  %36 = getelementptr inbounds nuw i8, ptr %3, i64 48
  %37 = load i64, ptr %36, align 8, !tbaa !84
  %38 = add i64 %35, %37
  store i64 %38, ptr %1, align 8, !tbaa !10
  br label %39

39:                                               ; preds = %28, %24, %13
  %.1 = phi i32 [ -1, %13 ], [ -1, %24 ], [ 0, %28 ]
  %40 = getelementptr inbounds nuw i8, ptr %0, i64 24
  %41 = load ptr, ptr %40, align 8, !tbaa !22
  %42 = getelementptr inbounds nuw i8, ptr %41, i64 32
  %43 = load ptr, ptr %42, align 8, !tbaa !21
  %.not = icmp eq ptr %43, null
  br i1 %.not, label %H5D__earray_idx_close.exit.thread, label %44

44:                                               ; preds = %39
  %45 = load i8, ptr @H5D_init_g, align 1, !tbaa !3, !range !7, !noundef !8
  %46 = trunc nuw i8 %45 to i1
  %47 = load i8, ptr @H5_libterm_g, align 1, !range !7
  %48 = trunc nuw i8 %47 to i1
  %49 = xor i1 %48, true
  %50 = select i1 %46, i1 true, i1 %49
  br i1 %50, label %51, label %H5D__earray_idx_close.exit.thread, !prof !9

51:                                               ; preds = %44
  %52 = call i32 @H5EA_close(ptr noundef nonnull %43) #11
  %53 = icmp slt i32 %52, 0
  br i1 %53, label %57, label %54

54:                                               ; preds = %51
  %55 = load ptr, ptr %40, align 8, !tbaa !22
  %56 = getelementptr inbounds nuw i8, ptr %55, i64 32
  store ptr null, ptr %56, align 8, !tbaa !21
  br label %H5D__earray_idx_close.exit.thread

57:                                               ; preds = %51
  %58 = load i64, ptr @H5E_DATASET_g, align 8, !tbaa !10
  %59 = load i64, ptr @H5E_CANTCLOSEOBJ_g, align 8, !tbaa !10
  %60 = call i32 (ptr, ptr, i32, i64, i64, ptr, ...) @H5E_printf_stack(ptr noundef nonnull @.str.2, ptr noundef nonnull @__func__.H5D__earray_idx_close, i32 noundef 941, i64 noundef %58, i64 noundef %59, ptr noundef nonnull @.str.26) #11
  %61 = load i64, ptr @H5E_DATASET_g, align 8, !tbaa !10
  %62 = load i64, ptr @H5E_CANTCLOSEOBJ_g, align 8, !tbaa !10
  %63 = call i32 (ptr, ptr, i32, i64, i64, ptr, ...) @H5E_printf_stack(ptr noundef nonnull @.str.2, ptr noundef nonnull @__func__.H5D__earray_idx_size, i32 noundef 1701, i64 noundef %61, i64 noundef %62, ptr noundef nonnull @.str.26) #11
  br label %H5D__earray_idx_close.exit.thread

H5D__earray_idx_close.exit.thread:                ; preds = %44, %54, %39, %57, %2
  %.0 = phi i32 [ -1, %57 ], [ %.1, %39 ], [ 0, %2 ], [ %.1, %54 ], [ %.1, %44 ]
  call void @llvm.lifetime.end.p0(i64 72, ptr nonnull %3) #11
  ret i32 %.0
}